target datalayout = "e-m:e-p270:32:32-p271:32:32-p272:64:64-i64:64-i128:128-f80:128-n8:16:32:64-S128"
target triple = "x86_64-pc-linux-gnu"

%struct.SDL_Rect = type { i32, i32, i32, i32 }
%struct.SDL_Point = type { i32, i32 }
%struct.SDL_WindowData = type { ptr, i64, ptr, i64, i8, %struct.XShmSegmentInfo, ptr, ptr, ptr, i8, i32, i32, i32, i32, i8, i8, i8, i64, i32, i64, i8, %struct.SDL_Point, %struct.XConfigureEvent, %struct.XConfigureEvent, ptr, i64, i64, i64, i8, i64, ptr, i8, [4 x i64], %struct.SDL_Rect, i64, %struct._XSyncValue, i8, %struct.SDL_Rect, %struct.SDL_DisplayMode, i32, i32, i8, i8, i8, i8, i8, i8, i8, i8, i32, %struct.XPoint, ptr, ptr, i32, i32, i8 }
%struct.XShmSegmentInfo = type { i64, i32, ptr, i32 }
%struct.XConfigureEvent = type { i32, i64, i32, ptr, i64, i64, i32, i32, i32, i32, i32, i64, i32 }
%struct._XSyncValue = type { i32, i32 }
%struct.SDL_DisplayMode = type { i32, i32, i32, i32, float, float, i32, i32, ptr }
%struct.XPoint = type { i16, i16 }
%struct.SDL_Window = type { i32, ptr, ptr, i32, i32, i32, i32, i32, i32, i32, i32, float, float, i32, i32, i64, i64, float, i8, i8, i32, i32, %struct.SDL_Rect, %struct.SDL_Rect, %struct.SDL_Rect, i8, i8, i8, %struct.SDL_DisplayMode, %struct.SDL_DisplayMode, %struct.SDL_HDROutputProperties, float, ptr, i8, i8, i8, i8, i8, i8, i8, i8, i8, i32, i32, i32, i32, %struct.SDL_Rect, i32, i8, %struct.SDL_Rect, i32, %struct.SDL_Rect, ptr, ptr, i32, float, i32, i32, ptr, ptr, ptr, ptr, ptr, ptr, ptr, ptr, ptr }
%struct.SDL_HDROutputProperties = type { float, float }

; Function Attrs: nounwind uwtable
define hidden void @X11_EmitConfigureNotifyEvents(ptr noundef %0, ptr noundef %1) #0 {
  %3 = alloca ptr, align 8
  %4 = alloca ptr, align 8
  %5 = alloca ptr, align 8
  %6 = alloca i32, align 4
  %7 = alloca i32, align 4
  store ptr %0, ptr %3, align 8
  store ptr %1, ptr %4, align 8
  %8 = load ptr, ptr %4, align 8
  %9 = getelementptr inbounds nuw %struct.XConfigureEvent, ptr %8, i32 0, i32 6
  %10 = load i32, ptr %9, align 8
  %11 = load ptr, ptr %3, align 8
  %12 = getelementptr inbounds nuw %struct.SDL_WindowData, ptr %11, i32 0, i32 22
  %13 = getelementptr inbounds nuw %struct.XConfigureEvent, ptr %12, i32 0, i32 6
  %14 = load i32, ptr %13, align 8
  %15 = icmp ne i32 %10, %14
  br i1 %15, label %25, label %16

16:                                               ; preds = %2
  %17 = load ptr, ptr %4, align 8
  %18 = getelementptr inbounds nuw %struct.XConfigureEvent, ptr %17, i32 0, i32 7
  %19 = load i32, ptr %18, align 4
  %20 = load ptr, ptr %3, align 8
  %21 = getelementptr inbounds nuw %struct.SDL_WindowData, ptr %20, i32 0, i32 22
  %22 = getelementptr inbounds nuw %struct.XConfigureEvent, ptr %21, i32 0, i32 7
  %23 = load i32, ptr %22, align 4
  %24 = icmp ne i32 %19, %23
  br i1 %24, label %25, label %81

25:                                               ; preds = %16, %2
  %26 = load ptr, ptr %3, align 8
  %27 = getelementptr inbounds nuw %struct.SDL_WindowData, ptr %26, i32 0, i32 40
  %28 = load i32, ptr %27, align 4
  %29 = icmp ne i32 %28, 0
  br i1 %29, label %80, label %30

30:                                               ; preds = %25
  call void @llvm.lifetime.start.p0(i64 8, ptr %5) #7
  call void @llvm.lifetime.start.p0(i64 4, ptr %6) #7
  %31 = load ptr, ptr %4, align 8
  %32 = getelementptr inbounds nuw %struct.XConfigureEvent, ptr %31, i32 0, i32 6
  %33 = load i32, ptr %32, align 8
  store i32 %33, ptr %6, align 4
  call void @llvm.lifetime.start.p0(i64 4, ptr %7) #7
  %34 = load ptr, ptr %4, align 8
  %35 = getelementptr inbounds nuw %struct.XConfigureEvent, ptr %34, i32 0, i32 7
  %36 = load i32, ptr %35, align 4
  store i32 %36, ptr %7, align 4
  %37 = load ptr, ptr %3, align 8
  %38 = getelementptr inbounds nuw %struct.SDL_WindowData, ptr %37, i32 0, i32 39
  %39 = load i32, ptr %38, align 8
  %40 = and i32 %39, -17
  store i32 %40, ptr %38, align 8
  %41 = load ptr, ptr %3, align 8
  %42 = getelementptr inbounds nuw %struct.SDL_WindowData, ptr %41, i32 0, i32 0
  %43 = load ptr, ptr %42, align 8
  %44 = load i32, ptr %6, align 4
  %45 = load i32, ptr %7, align 4
  call void @SDL_GlobalToRelativeForWindow(ptr noundef %43, i32 noundef %44, i32 noundef %45, ptr noundef %6, ptr noundef %7)
  %46 = load ptr, ptr %3, align 8
  %47 = getelementptr inbounds nuw %struct.SDL_WindowData, ptr %46, i32 0, i32 0
  %48 = load ptr, ptr %47, align 8
  %49 = load i32, ptr %6, align 4
  %50 = load i32, ptr %7, align 4
  %51 = call zeroext i1 @SDL_SendWindowEvent(ptr noundef %48, i32 noundef 517, i32 noundef %49, i32 noundef %50)
  %52 = load ptr, ptr %3, align 8
  %53 = getelementptr inbounds nuw %struct.SDL_WindowData, ptr %52, i32 0, i32 0
  %54 = load ptr, ptr %53, align 8
  %55 = getelementptr inbounds nuw %struct.SDL_Window, ptr %54, i32 0, i32 64
  %56 = load ptr, ptr %55, align 8
  store ptr %56, ptr %5, align 8
  br label %57

57:                                               ; preds = %75, %30
  %58 = load ptr, ptr %5, align 8
  %59 = icmp ne ptr %58, null
  br i1 %59, label %60, label %79

60:                                               ; preds = %57
  %61 = load ptr, ptr %5, align 8
  %62 = getelementptr inbounds nuw %struct.SDL_Window, ptr %61, i32 0, i32 15
  %63 = load i64, ptr %62, align 8
  %64 = and i64 %63, 786432
  %65 = icmp ne i64 %64, 0
  br i1 %65, label %66, label %74

66:                                               ; preds = %60
  %67 = load ptr, ptr %5, align 8
  %68 = getelementptr inbounds nuw %struct.SDL_Window, ptr %67, i32 0, i32 15
  %69 = load i64, ptr %68, align 8
  %70 = and i64 %69, 8
  %71 = icmp ne i64 %70, 0
  br i1 %71, label %74, label %72

72:                                               ; preds = %66
  %73 = load ptr, ptr %5, align 8
  call void @X11_UpdateWindowPosition(ptr noundef %73, i1 noundef zeroext true)
  br label %74

74:                                               ; preds = %72, %66, %60
  br label %75

75:                                               ; preds = %74
  %76 = load ptr, ptr %5, align 8
  %77 = getelementptr inbounds nuw %struct.SDL_Window, ptr %76, i32 0, i32 66
  %78 = load ptr, ptr %77, align 8
  store ptr %78, ptr %5, align 8
  br label %57, !llvm.loop !8

79:                                               ; preds = %57
  call void @llvm.lifetime.end.p0(i64 4, ptr %7) #7
  call void @llvm.lifetime.end.p0(i64 4, ptr %6) #7
  call void @llvm.lifetime.end.p0(i64 8, ptr %5) #7
  br label %80

80:                                               ; preds = %79, %25
  br label %81

81:                                               ; preds = %80, %16
  %82 = load ptr, ptr %4, align 8
  %83 = getelementptr inbounds nuw %struct.XConfigureEvent, ptr %82, i32 0, i32 8
  %84 = load i32, ptr %83, align 8
  %85 = load ptr, ptr %3, align 8
  %86 = getelementptr inbounds nuw %struct.SDL_WindowData, ptr %85, i32 0, i32 22
  %87 = getelementptr inbounds nuw %struct.XConfigureEvent, ptr %86, i32 0, i32 8
  %88 = load i32, ptr %87, align 8
  %89 = icmp ne i32 %84, %88
  br i1 %89, label %99, label %90

90:                                               ; preds = %81
  %91 = load ptr, ptr %4, align 8
  %92 = getelementptr inbounds nuw %struct.XConfigureEvent, ptr %91, i32 0, i32 9
  %93 = load i32, ptr %92, align 4
  %94 = load ptr, ptr %3, align 8
  %95 = getelementptr inbounds nuw %struct.SDL_WindowData, ptr %94, i32 0, i32 22
  %96 = getelementptr inbounds nuw %struct.XConfigureEvent, ptr %95, i32 0, i32 9
  %97 = load i32, ptr %96, align 4
  %98 = icmp ne i32 %93, %97
  br i1 %98, label %99, label %120

99:                                               ; preds = %90, %81
  %100 = load ptr, ptr %3, align 8
  %101 = getelementptr inbounds nuw %struct.SDL_WindowData, ptr %100, i32 0, i32 40
  %102 = load i32, ptr %101, align 4
  %103 = icmp ne i32 %102, 0
  br i1 %103, label %119, label %104

104:                                              ; preds = %99
  %105 = load ptr, ptr %3, align 8
  %106 = getelementptr inbounds nuw %struct.SDL_WindowData, ptr %105, i32 0, i32 39
  %107 = load i32, ptr %106, align 8
  %108 = and i32 %107, -33
  store i32 %108, ptr %106, align 8
  %109 = load ptr, ptr %3, align 8
  %110 = getelementptr inbounds nuw %struct.SDL_WindowData, ptr %109, i32 0, i32 0
  %111 = load ptr, ptr %110, align 8
  %112 = load ptr, ptr %4, align 8
  %113 = getelementptr inbounds nuw %struct.XConfigureEvent, ptr %112, i32 0, i32 8
  %114 = load i32, ptr %113, align 8
  %115 = load ptr, ptr %4, align 8
  %116 = getelementptr inbounds nuw %struct.XConfigureEvent, ptr %115, i32 0, i32 9
  %117 = load i32, ptr %116, align 4
  %118 = call zeroext i1 @SDL_SendWindowEvent(ptr noundef %111, i32 noundef 518, i32 noundef %114, i32 noundef %117)
  br label %119

119:                                              ; preds = %104, %99
  br label %120

120:                                              ; preds = %119, %90
  %121 = load ptr, ptr %3, align 8
  %122 = getelementptr inbounds nuw %struct.SDL_WindowData, ptr %121, i32 0, i32 22
  %123 = load ptr, ptr %4, align 8
  call void @llvm.memcpy.p0.p0.i64(ptr align 8 %122, ptr align 8 %123, i64 88, i1 false)
  ret void
}