; Function Attrs: nounwind uwtable
define hidden void @X11_EmitConfigureNotifyEvents(ptr noundef captures(none) %0, ptr noundef readonly captures(none) %1) local_unnamed_addr #1 {
  %3 = alloca i32, align 4
  %4 = alloca i32, align 4
  %5 = getelementptr inbounds nuw i8, ptr %1, i64 48
  %6 = load i32, ptr %5, align 8
  %7 = getelementptr inbounds nuw i8, ptr %0, i64 208
  %8 = load i32, ptr %7, align 8
  %.not = icmp eq i32 %6, %8
  br i1 %.not, label %9, label %14

9:                                                ; preds = %2
  %10 = getelementptr inbounds nuw i8, ptr %1, i64 52
  %11 = load i32, ptr %10, align 4
  %12 = getelementptr inbounds nuw i8, ptr %0, i64 212
  %13 = load i32, ptr %12, align 4
  %.not27 = icmp eq i32 %11, %13
  br i1 %.not27, label %37, label %14

14:                                               ; preds = %9, %2
  %15 = getelementptr inbounds nuw i8, ptr %0, i64 532
  %16 = load i32, ptr %15, align 4
  %.not28 = icmp eq i32 %16, 0
  br i1 %.not28, label %17, label %37

17:                                               ; preds = %14
  call void @llvm.lifetime.start.p0(i64 4, ptr nonnull %3) #12
  store i32 %6, ptr %3, align 4
  call void @llvm.lifetime.start.p0(i64 4, ptr nonnull %4) #12
  %18 = getelementptr inbounds nuw i8, ptr %1, i64 52
  %19 = load i32, ptr %18, align 4
  store i32 %19, ptr %4, align 4
  %20 = getelementptr inbounds nuw i8, ptr %0, i64 528
  %21 = load i32, ptr %20, align 8
  %22 = and i32 %21, -17
  store i32 %22, ptr %20, align 8
  %23 = load ptr, ptr %0, align 8
  call void @SDL_GlobalToRelativeForWindow(ptr noundef %23, i32 noundef %6, i32 noundef %19, ptr noundef nonnull %3, ptr noundef nonnull %4) #12
  %24 = load ptr, ptr %0, align 8
  %25 = load i32, ptr %3, align 4
  %26 = load i32, ptr %4, align 4
  %27 = call zeroext i1 @SDL_SendWindowEvent(ptr noundef %24, i32 noundef 517, i32 noundef %25, i32 noundef %26) #12
  %28 = load ptr, ptr %0, align 8
  %29 = getelementptr inbounds nuw i8, ptr %28, i64 432
  %.035 = load ptr, ptr %29, align 8
  %.not2936 = icmp eq ptr %.035, null
  br i1 %.not2936, label %._crit_edge, label %.lr.ph

.lr.ph:                                           ; preds = %17, %35
  %.037 = phi ptr [ %.0, %35 ], [ %.035, %17 ]
  %30 = getelementptr inbounds nuw i8, ptr %.037, i64 72
  %31 = load i64, ptr %30, align 8
  %32 = and i64 %31, 786432
  %.not30 = icmp ne i64 %32, 0
  %33 = and i64 %31, 8
  %.not31 = icmp eq i64 %33, 0
  %or.cond = and i1 %.not30, %.not31
  br i1 %or.cond, label %34, label %35

34:                                               ; preds = %.lr.ph
  call void @X11_UpdateWindowPosition(ptr noundef nonnull %.037, i1 noundef zeroext true) #12
  br label %35

35:                                               ; preds = %.lr.ph, %34
  %36 = getelementptr inbounds nuw i8, ptr %.037, i64 448
  %.0 = load ptr, ptr %36, align 8
  %.not29 = icmp eq ptr %.0, null
  br i1 %.not29, label %._crit_edge, label %.lr.ph, !llvm.loop !8

._crit_edge:                                      ; preds = %35, %17
  call void @llvm.lifetime.end.p0(i64 4, ptr nonnull %4) #12
  call void @llvm.lifetime.end.p0(i64 4, ptr nonnull %3) #12
  br label %37

37:                                               ; preds = %14, %._crit_edge, %9
  %38 = getelementptr inbounds nuw i8, ptr %1, i64 56
  %39 = load i32, ptr %38, align 8
  %40 = getelementptr inbounds nuw i8, ptr %0, i64 216
  %41 = load i32, ptr %40, align 8
  %.not32 = icmp eq i32 %39, %41
  br i1 %.not32, label %42, label %47

42:                                               ; preds = %37
  %43 = getelementptr inbounds nuw i8, ptr %1, i64 60
  %44 = load i32, ptr %43, align 4
  %45 = getelementptr inbounds nuw i8, ptr %0, i64 220
  %46 = load i32, ptr %45, align 4
  %.not33 = icmp eq i32 %44, %46
  br i1 %.not33, label %59, label %47

47:                                               ; preds = %42, %37
  %48 = getelementptr inbounds nuw i8, ptr %0, i64 532
  %49 = load i32, ptr %48, align 4
  %.not34 = icmp eq i32 %49, 0
  br i1 %.not34, label %50, label %59

50:                                               ; preds = %47
  %51 = getelementptr inbounds nuw i8, ptr %0, i64 528
  %52 = load i32, ptr %51, align 8
  %53 = and i32 %52, -33
  store i32 %53, ptr %51, align 8
  %54 = load ptr, ptr %0, align 8
  %55 = load i32, ptr %38, align 8
  %56 = getelementptr inbounds nuw i8, ptr %1, i64 60
  %57 = load i32, ptr %56, align 4
  %58 = call zeroext i1 @SDL_SendWindowEvent(ptr noundef %54, i32 noundef 518, i32 noundef %55, i32 noundef %57) #12
  br label %59

59:                                               ; preds = %47, %50, %42
  %60 = getelementptr inbounds nuw i8, ptr %0, i64 160
  call void @llvm.memcpy.p0.p0.i64(ptr noundef nonnull align 8 dereferenceable(88) %60, ptr noundef nonnull align 8 dereferenceable(88) %1, i64 88, i1 false)
  ret void
}